; Function Attrs: mustprogress nounwind uwtable
define dso_local void @_ZN4llvm19SwitchOpcodeMatcherD2Ev(ptr noundef nonnull align 8 dereferenceable(176) %0) unnamed_addr #1 align 2 {
  store ptr getelementptr inbounds inrange(-16, 48) (i8, ptr @_ZTVN4llvm19SwitchOpcodeMatcherE, i64 16), ptr %0, align 8
  %2 = getelementptr inbounds nuw i8, ptr %0, i64 32
  %3 = load ptr, ptr %2, align 8
  %4 = tail call noundef i64 @_ZNK4llvm15SmallVectorBaseIjE4sizeEv(ptr noundef nonnull align 8 dereferenceable(16) %2) #13
  %5 = getelementptr inbounds %"struct.std::pair", ptr %3, i64 %4
  %.not9 = icmp eq i64 %4, 0
  br i1 %.not9, label %._crit_edge, label %.lr.ph

.lr.ph:                                           ; preds = %1, %13
  %.010 = phi ptr [ %14, %13 ], [ %3, %1 ]
  %6 = getelementptr inbounds nuw i8, ptr %.010, i64 8
  %7 = load ptr, ptr %6, align 8
  %8 = icmp eq ptr %7, null
  br i1 %8, label %13, label %9

9:                                                ; preds = %.lr.ph
  %10 = load ptr, ptr %7, align 8
  %11 = getelementptr inbounds i8, ptr %10, i64 16
  %12 = load ptr, ptr %11, align 8
  tail call void %12(ptr noundef nonnull align 8 dereferenceable(28) %7) #13
  br label %13

13:                                               ; preds = %.lr.ph, %9
  %14 = getelementptr inbounds i8, ptr %.010, i64 16
  %.not = icmp eq ptr %14, %5
  br i1 %.not, label %._crit_edge, label %.lr.ph

._crit_edge:                                      ; preds = %13, %1
  %15 = tail call noundef i64 @_ZNK4llvm15SmallVectorBaseIjE4sizeEv(ptr noundef nonnull align 8 dereferenceable(16) %2) #13
  %16 = load ptr, ptr %2, align 8
  %17 = getelementptr inbounds i8, ptr %0, i64 48
  %18 = icmp eq ptr %16, %17
  br i1 %18, label %_ZN4llvm11SmallVectorISt4pairIPKNS_10SDNodeInfoEPNS_7MatcherEELj8EED2Ev.exit, label %19

19:                                               ; preds = %._crit_edge
  tail call void @free(ptr noundef %16) #13
  br label %_ZN4llvm11SmallVectorISt4pairIPKNS_10SDNodeInfoEPNS_7MatcherEELj8EED2Ev.exit

_ZN4llvm11SmallVectorISt4pairIPKNS_10SDNodeInfoEPNS_7MatcherEELj8EED2Ev.exit: ; preds = %._crit_edge, %19
  store ptr getelementptr inbounds inrange(-16, 48) (i8, ptr @_ZTVN4llvm7MatcherE, i64 16), ptr %0, align 8
  %20 = getelementptr inbounds nuw i8, ptr %0, i64 8
  %21 = load ptr, ptr %20, align 8
  %.not.i.i = icmp eq ptr %21, null
  br i1 %.not.i.i, label %_ZN4llvm7MatcherD2Ev.exit, label %_ZNKSt14default_deleteIN4llvm7MatcherEEclEPS1_.exit.i.i

_ZNKSt14default_deleteIN4llvm7MatcherEEclEPS1_.exit.i.i: ; preds = %_ZN4llvm11SmallVectorISt4pairIPKNS_10SDNodeInfoEPNS_7MatcherEELj8EED2Ev.exit
  %22 = load ptr, ptr %21, align 8
  %23 = getelementptr inbounds i8, ptr %22, i64 16
  %24 = load ptr, ptr %23, align 8
  tail call void %24(ptr noundef nonnull align 8 dereferenceable(28) %21) #13
  br label %_ZN4llvm7MatcherD2Ev.exit

_ZN4llvm7MatcherD2Ev.exit:                        ; preds = %_ZN4llvm11SmallVectorISt4pairIPKNS_10SDNodeInfoEPNS_7MatcherEELj8EED2Ev.exit, %_ZNKSt14default_deleteIN4llvm7MatcherEEclEPS1_.exit.i.i
  store ptr null, ptr %20, align 8
  ret void
}